target datalayout = "e-m:e-p270:32:32-p271:32:32-p272:64:64-i64:64-i128:128-f80:128-n8:16:32:64-S128"
target triple = "x86_64-unknown-linux-gnu"

@.str = private unnamed_addr constant [5 x i8] c"POOL\00", align 1
@.str.1 = private unnamed_addr constant [16 x i8] c"SINGLE_SOLUTION\00", align 1
@.str.2 = private unnamed_addr constant [15 x i8] c"MULTI_SOLUTION\00", align 1
@.str.3 = private unnamed_addr constant [12 x i8] c"CONSTRAINED\00", align 1
@.str.4 = private unnamed_addr constant [6 x i8] c"enum_\00", align 1

; Function Attrs: mustprogress uwtable
define hidden noundef nonnull align 8 dereferenceable(8) ptr @_ZN4cvc58internal6theory11quantifierslsERSoNS2_14EnumeratorRoleE(ptr noundef nonnull align 8 dereferenceable(8) %os, i32 noundef %r) #4 {
entry:
  %os.addr = alloca ptr, align 8
  %r.addr = alloca i32, align 4
  store ptr %os, ptr %os.addr, align 8
  store i32 %r, ptr %r.addr, align 4
  %0 = load i32, ptr %r.addr, align 4
  switch i32 %0, label %sw.default [
    i32 0, label %sw.bb
    i32 1, label %sw.bb1
    i32 2, label %sw.bb3
    i32 3, label %sw.bb5
  ]

sw.bb:                                            ; preds = %entry
  %1 = load ptr, ptr %os.addr, align 8
  %call = call noundef nonnull align 8 dereferenceable(8) ptr @_ZStlsISt11char_traitsIcEERSt13basic_ostreamIcT_ES5_PKc(ptr noundef nonnull align 8 dereferenceable(8) %1, ptr noundef @.str)
  br label %sw.epilog

sw.bb1:                                           ; preds = %entry
  %2 = load ptr, ptr %os.addr, align 8
  %call2 = call noundef nonnull align 8 dereferenceable(8) ptr @_ZStlsISt11char_traitsIcEERSt13basic_ostreamIcT_ES5_PKc(ptr noundef nonnull align 8 dereferenceable(8) %2, ptr noundef @.str.1)
  br label %sw.epilog

sw.bb3:                                           ; preds = %entry
  %3 = load ptr, ptr %os.addr, align 8
  %call4 = call noundef nonnull align 8 dereferenceable(8) ptr @_ZStlsISt11char_traitsIcEERSt13basic_ostreamIcT_ES5_PKc(ptr noundef nonnull align 8 dereferenceable(8) %3, ptr noundef @.str.2)
  br label %sw.epilog

sw.bb5:                                           ; preds = %entry
  %4 = load ptr, ptr %os.addr, align 8
  %call6 = call noundef nonnull align 8 dereferenceable(8) ptr @_ZStlsISt11char_traitsIcEERSt13basic_ostreamIcT_ES5_PKc(ptr noundef nonnull align 8 dereferenceable(8) %4, ptr noundef @.str.3)
  br label %sw.epilog

sw.default:                                       ; preds = %entry
  %5 = load ptr, ptr %os.addr, align 8
  %call7 = call noundef nonnull align 8 dereferenceable(8) ptr @_ZStlsISt11char_traitsIcEERSt13basic_ostreamIcT_ES5_PKc(ptr noundef nonnull align 8 dereferenceable(8) %5, ptr noundef @.str.4)
  %6 = load i32, ptr %r.addr, align 4
  %call8 = call noundef nonnull align 8 dereferenceable(8) ptr @_ZNSolsEj(ptr noundef nonnull align 8 dereferenceable(8) %call7, i32 noundef %6)
  br label %sw.epilog

sw.epilog:                                        ; preds = %sw.default, %sw.bb5, %sw.bb3, %sw.bb1, %sw.bb
  %7 = load ptr, ptr %os.addr, align 8
  ret ptr %7
}