; Function Attrs: mustprogress uwtable
define hidden noundef nonnull align 8 dereferenceable(8) ptr @_ZN4cvc58internal6theory11quantifierslsERSoNS2_14EnumeratorRoleE(ptr noundef nonnull returned align 8 dereferenceable(8) %os, i32 noundef %r) local_unnamed_addr #3 {
entry:
  switch i32 %r, label %sw.default [
    i32 0, label %sw.bb
    i32 1, label %sw.bb1
    i32 2, label %sw.bb3
    i32 3, label %sw.bb5
  ]

sw.bb:                                            ; preds = %entry
  %call = tail call noundef nonnull align 8 dereferenceable(8) ptr @_ZStlsISt11char_traitsIcEERSt13basic_ostreamIcT_ES5_PKc(ptr noundef nonnull align 8 dereferenceable(8) %os, ptr noundef nonnull @.str)
  br label %sw.epilog

sw.bb1:                                           ; preds = %entry
  %call2 = tail call noundef nonnull align 8 dereferenceable(8) ptr @_ZStlsISt11char_traitsIcEERSt13basic_ostreamIcT_ES5_PKc(ptr noundef nonnull align 8 dereferenceable(8) %os, ptr noundef nonnull @.str.1)
  br label %sw.epilog

sw.bb3:                                           ; preds = %entry
  %call4 = tail call noundef nonnull align 8 dereferenceable(8) ptr @_ZStlsISt11char_traitsIcEERSt13basic_ostreamIcT_ES5_PKc(ptr noundef nonnull align 8 dereferenceable(8) %os, ptr noundef nonnull @.str.2)
  br label %sw.epilog

sw.bb5:                                           ; preds = %entry
  %call6 = tail call noundef nonnull align 8 dereferenceable(8) ptr @_ZStlsISt11char_traitsIcEERSt13basic_ostreamIcT_ES5_PKc(ptr noundef nonnull align 8 dereferenceable(8) %os, ptr noundef nonnull @.str.3)
  br label %sw.epilog

sw.default:                                       ; preds = %entry
  %call7 = tail call noundef nonnull align 8 dereferenceable(8) ptr @_ZStlsISt11char_traitsIcEERSt13basic_ostreamIcT_ES5_PKc(ptr noundef nonnull align 8 dereferenceable(8) %os, ptr noundef nonnull @.str.4)
  %call8 = tail call noundef nonnull align 8 dereferenceable(8) ptr @_ZNSolsEj(ptr noundef nonnull align 8 dereferenceable(8) %call7, i32 noundef %r)
  br label %sw.epilog

sw.epilog:                                        ; preds = %sw.default, %sw.bb5, %sw.bb3, %sw.bb1, %sw.bb
  ret ptr %os
}